target datalayout = "e-m:e-p270:32:32-p271:32:32-p272:64:64-i64:64-i128:128-f80:128-n8:16:32:64-S128"
target triple = "x86_64-pc-linux-gnu"

%struct.sockaddr = type { i16, [14 x i8] }
%union.__SOCKADDR_ARG = type { ptr }

; Function Attrs: nounwind sspstrong uwtable
define i32 @rsock_fd_family(i32 noundef %0) #0 {
  %2 = alloca i32, align 4
  %3 = alloca i32, align 4
  %4 = alloca %struct.sockaddr, align 2
  %5 = alloca i32, align 4
  %6 = alloca %union.__SOCKADDR_ARG, align 8
  %7 = alloca i32, align 4
  store i32 %0, ptr %3, align 4, !tbaa !27
  call void @llvm.lifetime.start.p0(i64 16, ptr %4) #24
  call void @llvm.memset.p0.i64(ptr align 2 %4, i8 0, i64 16, i1 false)
  call void @llvm.lifetime.start.p0(i64 4, ptr %5) #24
  store i32 16, ptr %5, align 4, !tbaa !27
  %8 = load i32, ptr %3, align 4, !tbaa !27
  %9 = icmp slt i32 %8, 0
  br i1 %9, label %20, label %10

10:                                               ; preds = %1
  %11 = load i32, ptr %3, align 4, !tbaa !27
  store ptr %4, ptr %6, align 8, !tbaa !51
  %12 = getelementptr inbounds nuw %union.__SOCKADDR_ARG, ptr %6, i32 0, i32 0
  %13 = load ptr, ptr %12, align 8
  %14 = call i32 @getsockname(i32 noundef %11, ptr %13, ptr noundef %5) #24
  %15 = icmp ne i32 %14, 0
  br i1 %15, label %20, label %16

16:                                               ; preds = %10
  %17 = load i32, ptr %5, align 4, !tbaa !27
  %18 = zext i32 %17 to i64
  %19 = icmp ult i64 %18, 2
  br i1 %19, label %20, label %21

20:                                               ; preds = %16, %10, %1
  store i32 0, ptr %2, align 4
  store i32 1, ptr %7, align 4
  br label %25

21:                                               ; preds = %16
  %22 = getelementptr inbounds nuw %struct.sockaddr, ptr %4, i32 0, i32 0
  %23 = load i16, ptr %22, align 2, !tbaa !96
  %24 = zext i16 %23 to i32
  store i32 %24, ptr %2, align 4
  store i32 1, ptr %7, align 4
  br label %25

25:                                               ; preds = %21, %20
  call void @llvm.lifetime.end.p0(i64 4, ptr %5) #24
  call void @llvm.lifetime.end.p0(i64 16, ptr %4) #24
  %26 = load i32, ptr %2, align 4
  ret i32 %26
}