; Function Attrs: nounwind sspstrong uwtable
define range(i32 0, 65536) i32 @rsock_fd_family(i32 noundef %0) local_unnamed_addr #0 {
  %2 = alloca %struct.sockaddr, align 2
  %3 = alloca i32, align 4
  call void @llvm.lifetime.start.p0(i64 16, ptr nonnull %2) #21
  call void @llvm.memset.p0.i64(ptr noundef nonnull align 2 dereferenceable(16) %2, i8 0, i64 16, i1 false)
  call void @llvm.lifetime.start.p0(i64 4, ptr nonnull %3) #21
  store i32 16, ptr %3, align 4, !tbaa !34
  %4 = icmp slt i32 %0, 0
  br i1 %4, label %13, label %5

5:                                                ; preds = %1
  %6 = call i32 @getsockname(i32 noundef %0, ptr nonnull %2, ptr noundef nonnull %3) #21
  %7 = icmp ne i32 %6, 0
  %8 = load i32, ptr %3, align 4
  %9 = icmp ult i32 %8, 2
  %or.cond = select i1 %7, i1 true, i1 %9
  br i1 %or.cond, label %13, label %10

10:                                               ; preds = %5
  %11 = load i16, ptr %2, align 2, !tbaa !91
  %12 = zext i16 %11 to i32
  br label %13

13:                                               ; preds = %1, %5, %10
  %.0 = phi i32 [ %12, %10 ], [ 0, %5 ], [ 0, %1 ]
  call void @llvm.lifetime.end.p0(i64 4, ptr nonnull %3) #21
  call void @llvm.lifetime.end.p0(i64 16, ptr nonnull %2) #21
  ret i32 %.0
}